target datalayout = "e-m:e-p270:32:32-p271:32:32-p272:64:64-i64:64-i128:128-f80:128-n8:16:32:64-S128"
target triple = "x86_64-pc-linux-gnu"

; Function Attrs: nounwind uwtable
define hidden void @aom_horizontal_line_5_3_scale_c(ptr noundef %0, i32 noundef %1, ptr noundef %2, i32 noundef %3) #0 {
  %5 = alloca ptr, align 8
  %6 = alloca i32, align 4
  %7 = alloca ptr, align 8
  %8 = alloca i32, align 4
  %9 = alloca ptr, align 8
  %10 = alloca i32, align 4
  %11 = alloca i32, align 4
  %12 = alloca i32, align 4
  %13 = alloca i32, align 4
  %14 = alloca i32, align 4
  store ptr %0, ptr %5, align 8
  store i32 %1, ptr %6, align 4
  store ptr %2, ptr %7, align 8
  store i32 %3, ptr %8, align 4
  %15 = load ptr, ptr %5, align 8
  %16 = load i32, ptr %6, align 4
  %17 = zext i32 %16 to i64
  %18 = getelementptr inbounds i8, ptr %15, i64 %17
  store ptr %18, ptr %9, align 8
  br label %19

19:                                               ; preds = %23, %4
  %20 = load ptr, ptr %5, align 8
  %21 = load ptr, ptr %9, align 8
  %22 = icmp ult ptr %20, %21
  br i1 %22, label %23, label %72

23:                                               ; preds = %19
  %24 = load ptr, ptr %5, align 8
  %25 = getelementptr inbounds i8, ptr %24, i64 0
  %26 = load i8, ptr %25, align 1
  %27 = zext i8 %26 to i32
  store i32 %27, ptr %10, align 4
  %28 = load ptr, ptr %5, align 8
  %29 = getelementptr inbounds i8, ptr %28, i64 1
  %30 = load i8, ptr %29, align 1
  %31 = zext i8 %30 to i32
  store i32 %31, ptr %11, align 4
  %32 = load ptr, ptr %5, align 8
  %33 = getelementptr inbounds i8, ptr %32, i64 2
  %34 = load i8, ptr %33, align 1
  %35 = zext i8 %34 to i32
  store i32 %35, ptr %12, align 4
  %36 = load ptr, ptr %5, align 8
  %37 = getelementptr inbounds i8, ptr %36, i64 3
  %38 = load i8, ptr %37, align 1
  %39 = zext i8 %38 to i32
  store i32 %39, ptr %13, align 4
  %40 = load ptr, ptr %5, align 8
  %41 = getelementptr inbounds i8, ptr %40, i64 4
  %42 = load i8, ptr %41, align 1
  %43 = zext i8 %42 to i32
  store i32 %43, ptr %14, align 4
  %44 = load i32, ptr %10, align 4
  %45 = trunc i32 %44 to i8
  %46 = load ptr, ptr %7, align 8
  %47 = getelementptr inbounds i8, ptr %46, i64 0
  store i8 %45, ptr %47, align 1
  %48 = load i32, ptr %11, align 4
  %49 = mul i32 %48, 85
  %50 = load i32, ptr %12, align 4
  %51 = mul i32 %50, 171
  %52 = add i32 %49, %51
  %53 = add i32 %52, 128
  %54 = lshr i32 %53, 8
  %55 = trunc i32 %54 to i8
  %56 = load ptr, ptr %7, align 8
  %57 = getelementptr inbounds i8, ptr %56, i64 1
  store i8 %55, ptr %57, align 1
  %58 = load i32, ptr %13, align 4
  %59 = mul i32 %58, 171
  %60 = load i32, ptr %14, align 4
  %61 = mul i32 %60, 85
  %62 = add i32 %59, %61
  %63 = add i32 %62, 128
  %64 = lshr i32 %63, 8
  %65 = trunc i32 %64 to i8
  %66 = load ptr, ptr %7, align 8
  %67 = getelementptr inbounds i8, ptr %66, i64 2
  store i8 %65, ptr %67, align 1
  %68 = load ptr, ptr %5, align 8
  %69 = getelementptr inbounds i8, ptr %68, i64 5
  store ptr %69, ptr %5, align 8
  %70 = load ptr, ptr %7, align 8
  %71 = getelementptr inbounds i8, ptr %70, i64 3
  store ptr %71, ptr %7, align 8
  br label %19, !llvm.loop !7

72:                                               ; preds = %19
  ret void
}