; Function Attrs: nofree norecurse nosync nounwind memory(argmem: readwrite) uwtable
define hidden void @aom_horizontal_line_5_3_scale_c(ptr noundef readonly %0, i32 noundef %1, ptr noundef writeonly captures(none) %2, i32 noundef %3) local_unnamed_addr #0 {
  %5 = zext i32 %1 to i64
  %6 = getelementptr inbounds nuw i8, ptr %0, i64 %5
  %.not = icmp eq i32 %1, 0
  br i1 %.not, label %._crit_edge, label %.lr.ph

.lr.ph:                                           ; preds = %4, %.lr.ph
  %.020 = phi ptr [ %34, %.lr.ph ], [ %0, %4 ]
  %.01819 = phi ptr [ %35, %.lr.ph ], [ %2, %4 ]
  %7 = load i8, ptr %.020, align 1
  %8 = getelementptr inbounds nuw i8, ptr %.020, i64 1
  %9 = load i8, ptr %8, align 1
  %10 = zext i8 %9 to i32
  %11 = getelementptr inbounds nuw i8, ptr %.020, i64 2
  %12 = load i8, ptr %11, align 1
  %13 = zext i8 %12 to i32
  %14 = getelementptr inbounds nuw i8, ptr %.020, i64 3
  %15 = load i8, ptr %14, align 1
  %16 = zext i8 %15 to i32
  %17 = getelementptr inbounds nuw i8, ptr %.020, i64 4
  %18 = load i8, ptr %17, align 1
  %19 = zext i8 %18 to i32
  store i8 %7, ptr %.01819, align 1
  %20 = mul nuw nsw i32 %10, 85
  %21 = mul nuw nsw i32 %13, 171
  %22 = add nuw nsw i32 %20, 128
  %23 = add nuw nsw i32 %22, %21
  %24 = lshr i32 %23, 8
  %25 = trunc nuw i32 %24 to i8
  %26 = getelementptr inbounds nuw i8, ptr %.01819, i64 1
  store i8 %25, ptr %26, align 1
  %27 = mul nuw nsw i32 %16, 171
  %28 = mul nuw nsw i32 %19, 85
  %29 = add nuw nsw i32 %27, 128
  %30 = add nuw nsw i32 %29, %28
  %31 = lshr i32 %30, 8
  %32 = trunc nuw i32 %31 to i8
  %33 = getelementptr inbounds nuw i8, ptr %.01819, i64 2
  store i8 %32, ptr %33, align 1
  %34 = getelementptr inbounds nuw i8, ptr %.020, i64 5
  %35 = getelementptr inbounds nuw i8, ptr %.01819, i64 3
  %36 = icmp ult ptr %34, %6
  br i1 %36, label %.lr.ph, label %._crit_edge, !llvm.loop !7

._crit_edge:                                      ; preds = %.lr.ph, %4
  ret void
}